target datalayout = "e-m:e-p270:32:32-p271:32:32-p272:64:64-i64:64-i128:128-f80:128-n8:16:32:64-S128"
target triple = "x86_64-pc-linux-gnu"

@ett_data = internal global i32 0, align 4
@hf_nvme_get_logpage_cmd_and_eff_cs = internal global i32 0, align 4
@hf_nvme_get_logpage_cmd_and_eff_cseds = internal global [10 x i32] zeroinitializer, align 16
@.str.1801 = private unnamed_addr constant [35 x i8] c"Admin Command Supported %u (ACS%u)\00", align 1
@.str.1802 = private unnamed_addr constant [34 x i8] c"I/0 Command Supported %u (IOCS%u)\00", align 1

; Function Attrs: null_pointer_is_valid sspstrong uwtable
define internal void @add_group_mask_entry(ptr noundef %0, ptr noundef %1, i32 noundef %2, i32 noundef %3, ptr noundef %4, i32 noundef %5) #0 {
  %7 = alloca ptr, align 8
  %8 = alloca ptr, align 8
  %9 = alloca i32, align 4
  %10 = alloca i32, align 4
  %11 = alloca ptr, align 8
  %12 = alloca i32, align 4
  %13 = alloca ptr, align 8
  %14 = alloca ptr, align 8
  %15 = alloca i32, align 4
  store ptr %0, ptr %7, align 8
  store ptr %1, ptr %8, align 8
  store i32 %2, ptr %9, align 4
  store i32 %3, ptr %10, align 4
  store ptr %4, ptr %11, align 8
  store i32 %5, ptr %12, align 4
  call void @llvm.lifetime.start.p0(i64 8, ptr %13) #9
  call void @llvm.lifetime.start.p0(i64 8, ptr %14) #9
  call void @llvm.lifetime.start.p0(i64 4, ptr %15) #9
  %16 = load ptr, ptr %8, align 8
  %17 = load ptr, ptr %11, align 8
  %18 = getelementptr i32, ptr %17, i64 0
  %19 = load i32, ptr %18, align 4
  %20 = load ptr, ptr %7, align 8
  %21 = load i32, ptr %9, align 4
  %22 = load i32, ptr %10, align 4
  %23 = call ptr @proto_tree_add_item(ptr noundef %16, i32 noundef %19, ptr noundef %20, i32 noundef %21, i32 noundef %22, i32 noundef -2147483648)
  store ptr %23, ptr %13, align 8
  %24 = load ptr, ptr %13, align 8
  %25 = load i32, ptr @ett_data, align 4
  %26 = call ptr @proto_item_add_subtree(ptr noundef %24, i32 noundef %25)
  store ptr %26, ptr %14, align 8
  store i32 1, ptr %15, align 4
  br label %27

27:                                               ; preds = %42, %6
  %28 = load i32, ptr %15, align 4
  %29 = load i32, ptr %12, align 4
  %30 = icmp ult i32 %28, %29
  br i1 %30, label %31, label %45

31:                                               ; preds = %27
  %32 = load ptr, ptr %14, align 8
  %33 = load ptr, ptr %11, align 8
  %34 = load i32, ptr %15, align 4
  %35 = zext i32 %34 to i64
  %36 = getelementptr i32, ptr %33, i64 %35
  %37 = load i32, ptr %36, align 4
  %38 = load ptr, ptr %7, align 8
  %39 = load i32, ptr %9, align 4
  %40 = load i32, ptr %10, align 4
  %41 = call ptr @proto_tree_add_item(ptr noundef %32, i32 noundef %37, ptr noundef %38, i32 noundef %39, i32 noundef %40, i32 noundef -2147483648)
  br label %42

42:                                               ; preds = %31
  %43 = load i32, ptr %15, align 4
  %44 = add i32 %43, 1
  store i32 %44, ptr %15, align 4
  br label %27, !llvm.loop !14

45:                                               ; preds = %27
  call void @llvm.lifetime.end.p0(i64 4, ptr %15) #9
  call void @llvm.lifetime.end.p0(i64 8, ptr %14) #9
  call void @llvm.lifetime.end.p0(i64 8, ptr %13) #9
  ret void
}

; Function Attrs: null_pointer_is_valid sspstrong uwtable
define internal void @dissect_nvme_get_logpage_cmd_sup_and_eff_grp(ptr noundef %0, ptr noundef %1, i32 noundef %2, i32 noundef %3, i32 noundef %4, i1 noundef zeroext %5) #0 {
  %7 = alloca ptr, align 8
  %8 = alloca ptr, align 8
  %9 = alloca i32, align 4
  %10 = alloca i32, align 4
  %11 = alloca i32, align 4
  %12 = alloca i8, align 1
  %13 = alloca i32, align 4
  %14 = alloca ptr, align 8
  store ptr %0, ptr %7, align 8
  store ptr %1, ptr %8, align 8
  store i32 %2, ptr %9, align 4
  store i32 %3, ptr %10, align 4
  store i32 %4, ptr %11, align 4
  %15 = zext i1 %5 to i8
  store i8 %15, ptr %12, align 1
  call void @llvm.lifetime.start.p0(i64 4, ptr %13) #9
  call void @llvm.lifetime.start.p0(i64 8, ptr %14) #9
  store i32 0, ptr %13, align 4
  br label %16

16:                                               ; preds = %54, %6
  %17 = load i32, ptr %13, align 4
  %18 = load i32, ptr %10, align 4
  %19 = icmp ult i32 %17, %18
  br i1 %19, label %20, label %57

20:                                               ; preds = %16
  %21 = load i8, ptr %12, align 1, !range !6, !noundef !7
  %22 = trunc i8 %21 to i1
  br i1 %22, label %23, label %34

23:                                               ; preds = %20
  %24 = load ptr, ptr %7, align 8
  %25 = load i32, ptr @hf_nvme_get_logpage_cmd_and_eff_cs, align 4
  %26 = load ptr, ptr %8, align 8
  %27 = load i32, ptr %9, align 4
  %28 = load i32, ptr %11, align 4
  %29 = load i32, ptr %13, align 4
  %30 = add i32 %28, %29
  %31 = load i32, ptr %11, align 4
  %32 = add i32 %31, 1
  %33 = call ptr (ptr, i32, ptr, i32, i32, ptr, ptr, ...) @proto_tree_add_bytes_format(ptr noundef %24, i32 noundef %25, ptr noundef %26, i32 noundef %27, i32 noundef 4, ptr noundef null, ptr noundef @.str.1801, i32 noundef %30, i32 noundef %32)
  store ptr %33, ptr %14, align 8
  br label %45

34:                                               ; preds = %20
  %35 = load ptr, ptr %7, align 8
  %36 = load i32, ptr @hf_nvme_get_logpage_cmd_and_eff_cs, align 4
  %37 = load ptr, ptr %8, align 8
  %38 = load i32, ptr %9, align 4
  %39 = load i32, ptr %11, align 4
  %40 = load i32, ptr %13, align 4
  %41 = add i32 %39, %40
  %42 = load i32, ptr %11, align 4
  %43 = add i32 %42, 1
  %44 = call ptr (ptr, i32, ptr, i32, i32, ptr, ptr, ...) @proto_tree_add_bytes_format(ptr noundef %35, i32 noundef %36, ptr noundef %37, i32 noundef %38, i32 noundef 4, ptr noundef null, ptr noundef @.str.1802, i32 noundef %41, i32 noundef %43)
  store ptr %44, ptr %14, align 8
  br label %45

45:                                               ; preds = %34, %23
  %46 = load ptr, ptr %14, align 8
  %47 = load i32, ptr @ett_data, align 4
  %48 = call ptr @proto_item_add_subtree(ptr noundef %46, i32 noundef %47)
  store ptr %48, ptr %7, align 8
  %49 = load ptr, ptr %8, align 8
  %50 = load ptr, ptr %7, align 8
  %51 = load i32, ptr %9, align 4
  call void @add_group_mask_entry(ptr noundef %49, ptr noundef %50, i32 noundef %51, i32 noundef 4, ptr noundef @hf_nvme_get_logpage_cmd_and_eff_cseds, i32 noundef 10)
  %52 = load i32, ptr %9, align 4
  %53 = add i32 %52, 4
  store i32 %53, ptr %9, align 4
  br label %54

54:                                               ; preds = %45
  %55 = load i32, ptr %13, align 4
  %56 = add i32 %55, 1
  store i32 %56, ptr %13, align 4
  br label %16, !llvm.loop !26

57:                                               ; preds = %16
  call void @llvm.lifetime.end.p0(i64 8, ptr %14) #9
  call void @llvm.lifetime.end.p0(i64 4, ptr %13) #9
  ret void
}