; Function Attrs: null_pointer_is_valid sspstrong uwtable
define internal fastcc void @dissect_nvme_get_logpage_cmd_sup_and_eff_grp(ptr noundef %0, ptr noundef %1, i32 noundef %2, i32 noundef range(i32 -256, 1073741824) %3, i32 noundef range(i32 0, 1073741824) %4, i1 noundef zeroext %5) unnamed_addr #0 {
  %.not = icmp eq i32 %3, 0
  br i1 %.not, label %._crit_edge, label %.lr.ph

.lr.ph:                                           ; preds = %6
  %7 = add nuw nsw i32 %4, 1
  br i1 %5, label %.lr.ph.split.us, label %.lr.ph.split

.lr.ph.split.us:                                  ; preds = %.lr.ph, %add_group_mask_entry.exit.us
  %.02025.us = phi i32 [ %22, %add_group_mask_entry.exit.us ], [ 0, %.lr.ph ]
  %.02124.us = phi ptr [ %12, %add_group_mask_entry.exit.us ], [ %0, %.lr.ph ]
  %.02223.us = phi i32 [ %21, %add_group_mask_entry.exit.us ], [ %2, %.lr.ph ]
  %8 = load i32, ptr @hf_nvme_get_logpage_cmd_and_eff_cs, align 4
  %9 = add i32 %.02025.us, %4
  %10 = tail call ptr (ptr, i32, ptr, i32, i32, ptr, ptr, ...) @proto_tree_add_bytes_format(ptr noundef %.02124.us, i32 noundef %8, ptr noundef %1, i32 noundef %.02223.us, i32 noundef 4, ptr noundef null, ptr noundef nonnull @.str.1801, i32 noundef %9, i32 noundef %7)
  %11 = load i32, ptr @ett_data, align 4
  %12 = tail call ptr @proto_item_add_subtree(ptr noundef %10, i32 noundef %11)
  %13 = load i32, ptr @hf_nvme_get_logpage_cmd_and_eff_cseds, align 16
  %14 = tail call ptr @proto_tree_add_item(ptr noundef %12, i32 noundef %13, ptr noundef %1, i32 noundef %.02223.us, i32 noundef 4, i32 noundef -2147483648)
  %15 = load i32, ptr @ett_data, align 4
  %16 = tail call ptr @proto_item_add_subtree(ptr noundef %14, i32 noundef %15)
  br label %17

17:                                               ; preds = %17, %.lr.ph.split.us
  %indvars.iv.i.us = phi i64 [ 1, %.lr.ph.split.us ], [ %indvars.iv.next.i.us, %17 ]
  %18 = getelementptr i32, ptr @hf_nvme_get_logpage_cmd_and_eff_cseds, i64 %indvars.iv.i.us
  %19 = load i32, ptr %18, align 4
  %20 = tail call ptr @proto_tree_add_item(ptr noundef %16, i32 noundef %19, ptr noundef %1, i32 noundef %.02223.us, i32 noundef 4, i32 noundef -2147483648)
  %indvars.iv.next.i.us = add nuw nsw i64 %indvars.iv.i.us, 1
  %exitcond.not.i.us = icmp eq i64 %indvars.iv.next.i.us, 10
  br i1 %exitcond.not.i.us, label %add_group_mask_entry.exit.us, label %17, !llvm.loop !10

add_group_mask_entry.exit.us:                     ; preds = %17
  %21 = add i32 %.02223.us, 4
  %22 = add nuw i32 %.02025.us, 1
  %exitcond27.not = icmp eq i32 %22, %3
  br i1 %exitcond27.not, label %._crit_edge, label %.lr.ph.split.us, !llvm.loop !30

.lr.ph.split:                                     ; preds = %.lr.ph, %add_group_mask_entry.exit
  %.02025 = phi i32 [ %37, %add_group_mask_entry.exit ], [ 0, %.lr.ph ]
  %.02124 = phi ptr [ %27, %add_group_mask_entry.exit ], [ %0, %.lr.ph ]
  %.02223 = phi i32 [ %36, %add_group_mask_entry.exit ], [ %2, %.lr.ph ]
  %23 = load i32, ptr @hf_nvme_get_logpage_cmd_and_eff_cs, align 4
  %24 = add i32 %.02025, %4
  %25 = tail call ptr (ptr, i32, ptr, i32, i32, ptr, ptr, ...) @proto_tree_add_bytes_format(ptr noundef %.02124, i32 noundef %23, ptr noundef %1, i32 noundef %.02223, i32 noundef 4, ptr noundef null, ptr noundef nonnull @.str.1802, i32 noundef %24, i32 noundef %7)
  %26 = load i32, ptr @ett_data, align 4
  %27 = tail call ptr @proto_item_add_subtree(ptr noundef %25, i32 noundef %26)
  %28 = load i32, ptr @hf_nvme_get_logpage_cmd_and_eff_cseds, align 16
  %29 = tail call ptr @proto_tree_add_item(ptr noundef %27, i32 noundef %28, ptr noundef %1, i32 noundef %.02223, i32 noundef 4, i32 noundef -2147483648)
  %30 = load i32, ptr @ett_data, align 4
  %31 = tail call ptr @proto_item_add_subtree(ptr noundef %29, i32 noundef %30)
  br label %32

32:                                               ; preds = %32, %.lr.ph.split
  %indvars.iv.i = phi i64 [ 1, %.lr.ph.split ], [ %indvars.iv.next.i, %32 ]
  %33 = getelementptr i32, ptr @hf_nvme_get_logpage_cmd_and_eff_cseds, i64 %indvars.iv.i
  %34 = load i32, ptr %33, align 4
  %35 = tail call ptr @proto_tree_add_item(ptr noundef %31, i32 noundef %34, ptr noundef %1, i32 noundef %.02223, i32 noundef 4, i32 noundef -2147483648)
  %indvars.iv.next.i = add nuw nsw i64 %indvars.iv.i, 1
  %exitcond.not.i = icmp eq i64 %indvars.iv.next.i, 10
  br i1 %exitcond.not.i, label %add_group_mask_entry.exit, label %32, !llvm.loop !10

add_group_mask_entry.exit:                        ; preds = %32
  %36 = add i32 %.02223, 4
  %37 = add nuw i32 %.02025, 1
  %exitcond.not = icmp eq i32 %37, %3
  br i1 %exitcond.not, label %._crit_edge, label %.lr.ph.split, !llvm.loop !30

._crit_edge:                                      ; preds = %add_group_mask_entry.exit, %add_group_mask_entry.exit.us, %6
  ret void
}